; Function Attrs: mustprogress nounwind uwtable
define hidden void @_ZN4llvh12MemoryBuffer12getFileSliceERKNS_5TwineEmmb(ptr noalias nocapture sret(%"class.llvh::ErrorOr.12") align 8 %agg.result, ptr noundef nonnull align 8 dereferenceable(18) %FilePath, i64 noundef %MapSize, i64 noundef %Offset, i1 noundef zeroext %IsVolatile) local_unnamed_addr #4 align 2 {
entry:
  %FD.i = alloca i32, align 4
  tail call void @llvm.experimental.noalias.scope.decl(metadata !26)
  call void @llvm.lifetime.start.p0(i64 4, ptr nonnull %FD.i)
  %call.i = call { i32, ptr } @_ZN4llvh3sys2fs15openFileForReadERKNS_5TwineERiNS1_9OpenFlagsEPNS_15SmallVectorImplIcEE(ptr noundef nonnull align 8 dereferenceable(18) %FilePath, ptr noundef nonnull align 4 dereferenceable(4) %FD.i, i32 noundef 0, ptr noundef null) #22, !noalias !26
  %0 = extractvalue { i32, ptr } %call.i, 0
  %cmp.i.not.i = icmp eq i32 %0, 0
  br i1 %cmp.i.not.i, label %if.end.i, label %if.then.i

if.then.i:                                        ; preds = %entry
  %1 = extractvalue { i32, ptr } %call.i, 1
  %HasError.i.i = getelementptr inbounds i8, ptr %agg.result, i64 16
  %bf.load.i.i = load i8, ptr %HasError.i.i, align 8, !alias.scope !26
  %bf.set.i.i = or i8 %bf.load.i.i, 1
  store i8 %bf.set.i.i, ptr %HasError.i.i, align 8, !alias.scope !26
  store i32 %0, ptr %agg.result, align 8, !alias.scope !26
  %EC.sroa.21.0.call.sroa_idx.i.i = getelementptr inbounds i8, ptr %agg.result, i64 8
  store ptr %1, ptr %EC.sroa.21.0.call.sroa_idx.i.i, align 8, !alias.scope !26
  br label %_ZL10getFileAuxIN4llvh12MemoryBufferEENS0_7ErrorOrISt10unique_ptrIT_St14default_deleteIS4_EEEERKNS0_5TwineElmmbb.exit

if.end.i:                                         ; preds = %entry
  %2 = load i32, ptr %FD.i, align 4, !noalias !26
  call fastcc void @_ZL15getOpenFileImplIN4llvh12MemoryBufferEENS0_7ErrorOrISt10unique_ptrIT_St14default_deleteIS4_EEEEiRKNS0_5TwineEmmlbb(ptr noalias align 8 %agg.result, i32 noundef %2, ptr noundef nonnull align 8 dereferenceable(18) %FilePath, i64 noundef -1, i64 noundef %MapSize, i64 noundef %Offset, i1 noundef zeroext false, i1 noundef zeroext %IsVolatile)
  %3 = load i32, ptr %FD.i, align 4, !noalias !26
  %call4.i = call i32 @close(i32 noundef %3) #22, !noalias !26
  br label %_ZL10getFileAuxIN4llvh12MemoryBufferEENS0_7ErrorOrISt10unique_ptrIT_St14default_deleteIS4_EEEERKNS0_5TwineElmmbb.exit

_ZL10getFileAuxIN4llvh12MemoryBufferEENS0_7ErrorOrISt10unique_ptrIT_St14default_deleteIS4_EEEERKNS0_5TwineElmmbb.exit: ; preds = %if.then.i, %if.end.i
  call void @llvm.lifetime.end.p0(i64 4, ptr nonnull %FD.i)
  ret void
}